; Function Attrs: nofree norecurse nosync nounwind memory(argmem: readwrite) uwtable
define internal void @horizontal_compose_daub97i_12bit(ptr noundef captures(none) %0, ptr noundef captures(none) initializes((0, 4)) %1, i32 noundef %2) #3 {
  %4 = ashr i32 %2, 1
  %5 = load i32, ptr %0, align 4, !tbaa !70
  %6 = sext i32 %4 to i64
  %7 = getelementptr inbounds i32, ptr %0, i64 %6
  %8 = load i32, ptr %7, align 4, !tbaa !70
  %9 = mul i32 %8, 3634
  %10 = add i32 %9, 2048
  %11 = ashr i32 %10, 12
  %12 = sub i32 %5, %11
  store i32 %12, ptr %1, align 4, !tbaa !70
  %13 = icmp sgt i32 %4, 1
  br i1 %13, label %.lr.ph.preheader, label %._crit_edge

.lr.ph.preheader:                                 ; preds = %3
  %invariant.op = add nsw i32 %4, -1
  %14 = zext nneg i32 %invariant.op to i64
  %wide.trip.count = zext nneg i32 %4 to i64
  %invariant.gep = getelementptr i32, ptr %0, i64 %6
  br label %.lr.ph

.lr.ph:                                           ; preds = %.lr.ph.preheader, %.lr.ph
  %indvars.iv = phi i64 [ 1, %.lr.ph.preheader ], [ %indvars.iv.next, %.lr.ph ]
  %15 = getelementptr inbounds nuw i32, ptr %0, i64 %indvars.iv
  %16 = load i32, ptr %15, align 4, !tbaa !70
  %17 = add nuw nsw i64 %indvars.iv, %14
  %18 = getelementptr inbounds nuw i32, ptr %0, i64 %17
  %19 = load i32, ptr %18, align 4, !tbaa !70
  %gep = getelementptr i32, ptr %invariant.gep, i64 %indvars.iv
  %20 = load i32, ptr %gep, align 4, !tbaa !70
  %21 = add i32 %20, %19
  %22 = mul i32 %21, 1817
  %23 = add i32 %22, 2048
  %24 = ashr i32 %23, 12
  %25 = sub i32 %16, %24
  %26 = getelementptr inbounds nuw i32, ptr %1, i64 %indvars.iv
  store i32 %25, ptr %26, align 4, !tbaa !70
  %27 = load i32, ptr %18, align 4, !tbaa !70
  %28 = getelementptr i8, ptr %26, i64 -4
  %29 = load i32, ptr %28, align 4, !tbaa !70
  %30 = add i32 %25, %29
  %31 = mul i32 %30, 113
  %32 = add i32 %31, 64
  %33 = ashr i32 %32, 7
  %34 = sub i32 %27, %33
  %35 = getelementptr inbounds nuw i32, ptr %1, i64 %17
  store i32 %34, ptr %35, align 4, !tbaa !70
  %indvars.iv.next = add nuw nsw i64 %indvars.iv, 1
  %exitcond.not = icmp eq i64 %indvars.iv.next, %wide.trip.count
  br i1 %exitcond.not, label %._crit_edge, label %.lr.ph, !llvm.loop !127

._crit_edge:                                      ; preds = %.lr.ph, %3
  %36 = add nsw i32 %2, -1
  %37 = sext i32 %36 to i64
  %38 = getelementptr inbounds i32, ptr %0, i64 %37
  %39 = load i32, ptr %38, align 4, !tbaa !70
  %40 = getelementptr i32, ptr %1, i64 %6
  %41 = getelementptr i8, ptr %40, i64 -4
  %42 = load i32, ptr %41, align 4, !tbaa !70
  %43 = mul i32 %42, 226
  %44 = add i32 %43, 64
  %45 = ashr i32 %44, 7
  %46 = sub i32 %39, %45
  %47 = getelementptr inbounds i32, ptr %1, i64 %37
  store i32 %46, ptr %47, align 4, !tbaa !70
  %48 = load i32, ptr %1, align 4, !tbaa !70
  %49 = load i32, ptr %40, align 4, !tbaa !70
  %50 = mul i32 %49, 434
  %51 = add i32 %50, 2048
  %52 = ashr i32 %51, 12
  %53 = add i32 %52, %48
  %54 = ashr i32 %53, 1
  store i32 %54, ptr %0, align 4, !tbaa !70
  br i1 %13, label %.lr.ph84.preheader, label %._crit_edge85

.lr.ph84.preheader:                               ; preds = %._crit_edge
  %55 = zext nneg i32 %4 to i64
  %invariant.gep93 = getelementptr i32, ptr %1, i64 %55
  br label %.lr.ph84

.lr.ph84:                                         ; preds = %.lr.ph84.preheader, %.lr.ph84
  %indvars.iv88 = phi i64 [ 1, %.lr.ph84.preheader ], [ %indvars.iv.next89, %.lr.ph84 ]
  %.07581 = phi i32 [ %53, %.lr.ph84.preheader ], [ %65, %.lr.ph84 ]
  %56 = getelementptr inbounds nuw i32, ptr %1, i64 %indvars.iv88
  %57 = load i32, ptr %56, align 4, !tbaa !70
  %gep94 = getelementptr i32, ptr %invariant.gep93, i64 %indvars.iv88
  %58 = getelementptr i8, ptr %gep94, i64 -4
  %59 = load i32, ptr %58, align 4, !tbaa !70
  %60 = load i32, ptr %gep94, align 4, !tbaa !70
  %61 = add i32 %60, %59
  %62 = mul i32 %61, 217
  %63 = add i32 %62, 2048
  %64 = ashr i32 %63, 12
  %65 = add i32 %64, %57
  %66 = add i32 %65, %.07581
  %.neg79.neg = mul i32 %66, 6497
  %67 = add i32 %.neg79.neg, 2048
  %68 = ashr i32 %67, 12
  %69 = add i32 %68, %59
  %70 = ashr i32 %69, 1
  %.idx = shl i64 %indvars.iv88, 3
  %71 = getelementptr i8, ptr %0, i64 %.idx
  %72 = getelementptr i8, ptr %71, i64 -4
  store i32 %70, ptr %72, align 4, !tbaa !70
  %73 = ashr i32 %65, 1
  store i32 %73, ptr %71, align 4, !tbaa !70
  %indvars.iv.next89 = add nuw nsw i64 %indvars.iv88, 1
  %exitcond92.not = icmp eq i64 %indvars.iv.next89, %55
  br i1 %exitcond92.not, label %._crit_edge85, label %.lr.ph84, !llvm.loop !128

._crit_edge85:                                    ; preds = %.lr.ph84, %._crit_edge
  %.075.lcssa = phi i32 [ %53, %._crit_edge ], [ %65, %.lr.ph84 ]
  %74 = load i32, ptr %47, align 4, !tbaa !70
  %.neg = mul i32 %.075.lcssa, -12994
  %75 = add i32 %.neg, -2049
  %76 = ashr i32 %75, 12
  %77 = sub i32 %76, %74
  %78 = lshr i32 %77, 1
  %79 = xor i32 %78, -1
  store i32 %79, ptr %38, align 4, !tbaa !70
  ret void
}